#include <math.h>
#include <stdio.h>
#include <stdlib.h>
#include <string.h>
#include <iostream>
using namespace std;



int main(void)
{
    int i,j,m,k=0,temp=0;
    cin>>m;
    int arr_a[1300];
    for (i=3;i<=m;i++)
    {
        for (j=2;j<=floor(sqrt(i));j++)
            if (i%j==0) temp++;
        if (temp==0) arr_a[k++]=i;
        temp=0;
    }
    for (i=0;i<k;i++)
    {
        for (j=i;j<k;j++)
            if (arr_a[i]+arr_a[j]==m)
               cout<<arr_a[i]<<" "<<arr_a[j]<<endl;
    }
    return 0;
}
